; ModuleID = '36/234.c'
source_filename = "36/234.c"
target datalayout = "e-m:e-p270:32:32-p271:32:32-p272:64:64-i64:64-f80:128-n8:16:32:64-S128"
target triple = "x86_64-pc-linux-gnu"

@.str = private unnamed_addr constant [6 x i8] c"%s %s\00", align 1
@.str.1 = private unnamed_addr constant [4 x i8] c"NO\0A\00", align 1
@.str.2 = private unnamed_addr constant [5 x i8] c"YES\0A\00", align 1

; Function Attrs: noinline nounwind uwtable
define dso_local void @main() #0 {
  %1 = alloca [50 x i8], align 16
  %2 = alloca [50 x i8], align 16
  %3 = alloca i32, align 4
  %4 = alloca i32, align 4
  %5 = alloca i32, align 4
  %6 = bitcast [50 x i8]* %1 to i8*
  call void @llvm.memset.p0i8.i64(i8* align 16 %6, i8 0, i64 50, i1 false)
  %7 = bitcast [50 x i8]* %2 to i8*
  call void @llvm.memset.p0i8.i64(i8* align 16 %7, i8 0, i64 50, i1 false)
  %8 = getelementptr inbounds [50 x i8], [50 x i8]* %1, i64 0, i64 0
  %9 = getelementptr inbounds [50 x i8], [50 x i8]* %2, i64 0, i64 0
  %10 = call i32 (i8*, ...) @__isoc99_scanf(i8* getelementptr inbounds ([6 x i8], [6 x i8]* @.str, i64 0, i64 0), i8* %8, i8* %9)
  %11 = getelementptr inbounds [50 x i8], [50 x i8]* %1, i64 0, i64 0
  %12 = call i64 @strlen(i8* %11) #4
  %13 = trunc i64 %12 to i32
  store i32 %13, i32* %4, align 4
  %14 = getelementptr inbounds [50 x i8], [50 x i8]* %2, i64 0, i64 0
  %15 = call i64 @strlen(i8* %14) #4
  %16 = trunc i64 %15 to i32
  store i32 %16, i32* %5, align 4
  %17 = load i32, i32* %4, align 4
  %18 = load i32, i32* %5, align 4
  %19 = icmp ne i32 %17, %18
  br i1 %19, label %20, label %22

20:                                               ; preds = %0
  %21 = call i32 (i8*, ...) @printf(i8* getelementptr inbounds ([4 x i8], [4 x i8]* @.str.1, i64 0, i64 0))
  br label %50

22:                                               ; preds = %0
  %23 = getelementptr inbounds [50 x i8], [50 x i8]* %1, i64 0, i64 0
  %24 = load i32, i32* %4, align 4
  call void @arn(i8* %23, i32 %24)
  %25 = getelementptr inbounds [50 x i8], [50 x i8]* %2, i64 0, i64 0
  %26 = load i32, i32* %4, align 4
  call void @arn(i8* %25, i32 %26)
  store i32 0, i32* %3, align 4
  br label %27

27:                                               ; preds = %46, %22
  %28 = load i32, i32* %3, align 4
  %29 = load i32, i32* %4, align 4
  %30 = icmp slt i32 %28, %29
  br i1 %30, label %31, label %49

31:                                               ; preds = %27
  %32 = load i32, i32* %3, align 4
  %33 = sext i32 %32 to i64
  %34 = getelementptr inbounds [50 x i8], [50 x i8]* %1, i64 0, i64 %33
  %35 = load i8, i8* %34, align 1
  %36 = sext i8 %35 to i32
  %37 = load i32, i32* %3, align 4
  %38 = sext i32 %37 to i64
  %39 = getelementptr inbounds [50 x i8], [50 x i8]* %2, i64 0, i64 %38
  %40 = load i8, i8* %39, align 1
  %41 = sext i8 %40 to i32
  %42 = icmp ne i32 %36, %41
  br i1 %42, label %43, label %45

43:                                               ; preds = %31
  %44 = call i32 (i8*, ...) @printf(i8* getelementptr inbounds ([4 x i8], [4 x i8]* @.str.1, i64 0, i64 0))
  br label %49

45:                                               ; preds = %31
  br label %46

46:                                               ; preds = %45
  %47 = load i32, i32* %3, align 4
  %48 = add nsw i32 %47, 1
  store i32 %48, i32* %3, align 4
  br label %27

49:                                               ; preds = %43, %27
  br label %50

50:                                               ; preds = %49, %20
  %51 = load i32, i32* %3, align 4
  %52 = load i32, i32* %4, align 4
  %53 = icmp eq i32 %51, %52
  br i1 %53, label %54, label %56

54:                                               ; preds = %50
  %55 = call i32 (i8*, ...) @printf(i8* getelementptr inbounds ([5 x i8], [5 x i8]* @.str.2, i64 0, i64 0))
  br label %56

56:                                               ; preds = %54, %50
  ret void
}

; Function Attrs: argmemonly nounwind willreturn
declare void @llvm.memset.p0i8.i64(i8* nocapture writeonly, i8, i64, i1 immarg) #1

declare dso_local i32 @__isoc99_scanf(i8*, ...) #2

; Function Attrs: nounwind readonly
declare dso_local i64 @strlen(i8*) #3

declare dso_local i32 @printf(i8*, ...) #2

; Function Attrs: noinline nounwind uwtable
define dso_local void @arn(i8* %0, i32 %1) #0 {
  %3 = alloca i8*, align 8
  %4 = alloca i32, align 4
  %5 = alloca i32, align 4
  %6 = alloca i32, align 4
  %7 = alloca i8, align 1
  store i8* %0, i8** %3, align 8
  store i32 %1, i32* %4, align 4
  store i32 0, i32* %5, align 4
  br label %8

8:                                                ; preds = %59, %2
  %9 = load i32, i32* %5, align 4
  %10 = load i32, i32* %4, align 4
  %11 = sub nsw i32 %10, 1
  %12 = icmp slt i32 %9, %11
  br i1 %12, label %13, label %62

13:                                               ; preds = %8
  %14 = load i32, i32* %5, align 4
  %15 = add nsw i32 %14, 1
  store i32 %15, i32* %6, align 4
  br label %16

16:                                               ; preds = %55, %13
  %17 = load i32, i32* %6, align 4
  %18 = load i32, i32* %4, align 4
  %19 = icmp slt i32 %17, %18
  br i1 %19, label %20, label %58

20:                                               ; preds = %16
  %21 = load i8*, i8** %3, align 8
  %22 = load i32, i32* %5, align 4
  %23 = sext i32 %22 to i64
  %24 = getelementptr inbounds i8, i8* %21, i64 %23
  %25 = load i8, i8* %24, align 1
  %26 = sext i8 %25 to i32
  %27 = load i8*, i8** %3, align 8
  %28 = load i32, i32* %6, align 4
  %29 = sext i32 %28 to i64
  %30 = getelementptr inbounds i8, i8* %27, i64 %29
  %31 = load i8, i8* %30, align 1
  %32 = sext i8 %31 to i32
  %33 = icmp slt i32 %26, %32
  br i1 %33, label %34, label %54

34:                                               ; preds = %20
  %35 = load i8*, i8** %3, align 8
  %36 = load i32, i32* %5, align 4
  %37 = sext i32 %36 to i64
  %38 = getelementptr inbounds i8, i8* %35, i64 %37
  %39 = load i8, i8* %38, align 1
  store i8 %39, i8* %7, align 1
  %40 = load i8*, i8** %3, align 8
  %41 = load i32, i32* %6, align 4
  %42 = sext i32 %41 to i64
  %43 = getelementptr inbounds i8, i8* %40, i64 %42
  %44 = load i8, i8* %43, align 1
  %45 = load i8*, i8** %3, align 8
  %46 = load i32, i32* %5, align 4
  %47 = sext i32 %46 to i64
  %48 = getelementptr inbounds i8, i8* %45, i64 %47
  store i8 %44, i8* %48, align 1
  %49 = load i8, i8* %7, align 1
  %50 = load i8*, i8** %3, align 8
  %51 = load i32, i32* %6, align 4
  %52 = sext i32 %51 to i64
  %53 = getelementptr inbounds i8, i8* %50, i64 %52
  store i8 %49, i8* %53, align 1
  br label %54

54:                                               ; preds = %34, %20
  br label %55

55:                                               ; preds = %54
  %56 = load i32, i32* %6, align 4
  %57 = add nsw i32 %56, 1
  store i32 %57, i32* %6, align 4
  br label %16

58:                                               ; preds = %16
  br label %59

59:                                               ; preds = %58
  %60 = load i32, i32* %5, align 4
  %61 = add nsw i32 %60, 1
  store i32 %61, i32* %5, align 4
  br label %8

62:                                               ; preds = %8
  ret void
}


!llvm.module.flags = !{!0}
!llvm.ident = !{!1}

!0 = !{i32 1, !"wchar_size", i32 4}
!1 = !{!"clang version 10.0.0-4ubuntu1 "}
